target datalayout = "e-m:e-p270:32:32-p271:32:32-p272:64:64-i64:64-i128:128-f80:128-n8:16:32:64-S128"
target triple = "x86_64-pc-linux-gnu"

%struct.DdManager = type { %struct.DdNode, ptr, ptr, ptr, ptr, ptr, ptr, ptr, i32, i32, double, double, double, i32, i32, i32, i32, i32, i32, ptr, ptr, %struct.DdSubtable, i32, i32, i32, i32, i32, i32, i32, double, i32, i32, i32, ptr, i64, double, i32, ptr, ptr, ptr, ptr, ptr, ptr, ptr, i32, ptr, ptr, ptr, ptr, ptr, ptr, i32, i32, i32, double, i32, i32, i32, i32, double, double, i32, i32, i32, i32, i32, i32, i32, i32, i32, ptr, ptr, i32, i32, i32, i32, i32, i32, ptr, ptr, ptr, ptr, ptr, ptr, ptr, ptr, i32, i64, i64, i64, i32, i64, i64, double, double, double, double, double, double, i32, ptr, ptr, i64 }
%struct.DdNode = type { i32, i32, ptr, %union.anon, i64 }
%union.anon = type { %struct.DdChildren }
%struct.DdChildren = type { ptr, ptr }
%struct.DdSubtable = type { ptr, i32, i32, i32, i32, i32, i32, i32, i32, i32, i32, i32 }

@.str = private unnamed_addr constant [38 x i8] c"Cudd_Cofactor: Invalid restriction 1\0A\00", align 1

; Function Attrs: nounwind uwtable
define ptr @Cudd_Cofactor(ptr noundef %0, ptr noundef %1, ptr noundef %2) #0 {
  %4 = alloca ptr, align 8
  %5 = alloca ptr, align 8
  %6 = alloca ptr, align 8
  %7 = alloca ptr, align 8
  %8 = alloca ptr, align 8
  %9 = alloca ptr, align 8
  store ptr %0, ptr %5, align 8
  store ptr %1, ptr %6, align 8
  store ptr %2, ptr %7, align 8
  %10 = load ptr, ptr %5, align 8
  %11 = getelementptr inbounds %struct.DdManager, ptr %10, i32 0, i32 1
  %12 = load ptr, ptr %11, align 8
  %13 = ptrtoint ptr %12 to i64
  %14 = xor i64 %13, 1
  %15 = inttoptr i64 %14 to ptr
  store ptr %15, ptr %9, align 8
  %16 = load ptr, ptr %7, align 8
  %17 = load ptr, ptr %9, align 8
  %18 = icmp eq ptr %16, %17
  br i1 %18, label %25, label %19

19:                                               ; preds = %3
  %20 = load ptr, ptr %7, align 8
  %21 = load ptr, ptr %5, align 8
  %22 = getelementptr inbounds %struct.DdManager, ptr %21, i32 0, i32 2
  %23 = load ptr, ptr %22, align 8
  %24 = icmp eq ptr %20, %23
  br i1 %24, label %25, label %32

25:                                               ; preds = %19, %3
  %26 = load ptr, ptr %5, align 8
  %27 = getelementptr inbounds %struct.DdManager, ptr %26, i32 0, i32 85
  %28 = load ptr, ptr %27, align 8
  %29 = call i32 (ptr, ptr, ...) @fprintf(ptr noundef %28, ptr noundef @.str) #3
  %30 = load ptr, ptr %5, align 8
  %31 = getelementptr inbounds %struct.DdManager, ptr %30, i32 0, i32 86
  store i32 4, ptr %31, align 8
  store ptr null, ptr %4, align 8
  br label %47

32:                                               ; preds = %19
  br label %33

33:                                               ; preds = %40, %32
  %34 = load ptr, ptr %5, align 8
  %35 = getelementptr inbounds %struct.DdManager, ptr %34, i32 0, i32 55
  store i32 0, ptr %35, align 8
  %36 = load ptr, ptr %5, align 8
  %37 = load ptr, ptr %6, align 8
  %38 = load ptr, ptr %7, align 8
  %39 = call ptr @cuddCofactorRecur(ptr noundef %36, ptr noundef %37, ptr noundef %38)
  store ptr %39, ptr %8, align 8
  br label %40

40:                                               ; preds = %33
  %41 = load ptr, ptr %5, align 8
  %42 = getelementptr inbounds %struct.DdManager, ptr %41, i32 0, i32 55
  %43 = load i32, ptr %42, align 8
  %44 = icmp eq i32 %43, 1
  br i1 %44, label %33, label %45, !llvm.loop !4

45:                                               ; preds = %40
  %46 = load ptr, ptr %8, align 8
  store ptr %46, ptr %4, align 8
  br label %47

47:                                               ; preds = %45, %25
  %48 = load ptr, ptr %4, align 8
  ret ptr %48
}