; Function Attrs: nounwind uwtable
define ptr @Cudd_Cofactor(ptr noundef %0, ptr noundef %1, ptr noundef %2) #0 {
  %4 = getelementptr inbounds nuw i8, ptr %0, i64 40
  %5 = load ptr, ptr %4, align 8
  %6 = ptrtoint ptr %5 to i64
  %7 = xor i64 %6, 1
  %8 = inttoptr i64 %7 to ptr
  %9 = icmp eq ptr %2, %8
  br i1 %9, label %15, label %10

10:                                               ; preds = %3
  %11 = getelementptr inbounds nuw i8, ptr %0, i64 48
  %12 = load ptr, ptr %11, align 8
  %13 = icmp eq ptr %2, %12
  br i1 %13, label %15, label %.preheader

.preheader:                                       ; preds = %10
  %14 = getelementptr inbounds nuw i8, ptr %0, i64 448
  br label %20

15:                                               ; preds = %10, %3
  %16 = getelementptr inbounds nuw i8, ptr %0, i64 616
  %17 = load ptr, ptr %16, align 8
  %18 = tail call i64 @fwrite(ptr nonnull @.str, i64 37, i64 1, ptr %17)
  %19 = getelementptr inbounds nuw i8, ptr %0, i64 624
  store i32 4, ptr %19, align 8
  br label %.loopexit

20:                                               ; preds = %.preheader, %20
  store i32 0, ptr %14, align 8
  %21 = tail call ptr @cuddCofactorRecur(ptr noundef nonnull %0, ptr noundef %1, ptr noundef %2)
  %22 = load i32, ptr %14, align 8
  %23 = icmp eq i32 %22, 1
  br i1 %23, label %20, label %.loopexit, !llvm.loop !4

.loopexit:                                        ; preds = %20, %15
  %.0 = phi ptr [ null, %15 ], [ %21, %20 ]
  ret ptr %.0
}